target datalayout = "e-m:e-p270:32:32-p271:32:32-p272:64:64-i64:64-i128:128-f80:128-n8:16:32:64-S128"
target triple = "x86_64-pc-linux-gnu"

%struct.Agobj_s = type { %struct.Agtag_s, ptr }
%struct.Agtag_s = type { i32, i64 }
%struct.Agraphinfo_t = type { %struct.Agrec_s, ptr, ptr, %struct.boxf, [4 x %struct.pointf_s], i8, i8, i8, i8, i32, double, double, i16, ptr, ptr, ptr, ptr, i32, ptr, ptr, ptr, ptr, i16, i16, i32, ptr, ptr, ptr, ptr, ptr, i32, ptr, ptr, %struct.nlist_t, ptr, ptr, i32, i32, i8, i8, i32, i32, i32, ptr, ptr, ptr, ptr, i8, i8, i8, i8, i8 }
%struct.Agrec_s = type { ptr, ptr }
%struct.boxf = type { %struct.pointf_s, %struct.pointf_s }
%struct.pointf_s = type { double, double }
%struct.nlist_t = type { ptr, i64 }
%struct.Agnodeinfo_t = type { %struct.Agrec_s, ptr, ptr, %struct.pointf_s, double, double, %struct.boxf, double, double, double, double, double, ptr, ptr, ptr, i8, i8, i8, i8, i32, i32, i32, ptr, double, i8, i8, ptr, ptr, i8, i64, i8, i8, i8, ptr, ptr, %struct.elist, %struct.elist, %struct.elist, %struct.elist, %struct.elist, ptr, i32, ptr, i32, i32, double, %struct.elist, %struct.elist, %struct.elist, %struct.elist, ptr, i32, i32, i32, [1 x double] }
%struct.elist = type { ptr, i64 }

; Function Attrs: nounwind uwtable
define internal void @patchwork_cleanup_graph(ptr noundef %0) #0 {
  %2 = alloca ptr, align 8
  store ptr %0, ptr %2, align 8, !tbaa !3
  %3 = load ptr, ptr %2, align 8, !tbaa !3
  %4 = getelementptr inbounds nuw %struct.Agobj_s, ptr %3, i32 0, i32 1
  %5 = load ptr, ptr %4, align 8, !tbaa !8
  %6 = getelementptr inbounds nuw %struct.Agraphinfo_t, ptr %5, i32 0, i32 16
  %7 = load ptr, ptr %6, align 8, !tbaa !49
  call void @free(ptr noundef %7) #11
  %8 = load ptr, ptr %2, align 8, !tbaa !3
  %9 = getelementptr inbounds nuw %struct.Agobj_s, ptr %8, i32 0, i32 1
  %10 = load ptr, ptr %9, align 8, !tbaa !8
  %11 = getelementptr inbounds nuw %struct.Agraphinfo_t, ptr %10, i32 0, i32 25
  %12 = load ptr, ptr %11, align 8, !tbaa !50
  call void @free(ptr noundef %12) #11
  ret void
}

; Function Attrs: nounwind uwtable
define void @patchwork_cleanup(ptr noundef %0) #0 {
  %2 = alloca ptr, align 8
  %3 = alloca ptr, align 8
  %4 = alloca ptr, align 8
  %5 = alloca i32, align 4
  store ptr %0, ptr %2, align 8, !tbaa !3
  call void @llvm.lifetime.start.p0(i64 8, ptr %3) #11
  call void @llvm.lifetime.start.p0(i64 8, ptr %4) #11
  %6 = load ptr, ptr %2, align 8, !tbaa !3
  %7 = call ptr @agfstnode(ptr noundef %6)
  store ptr %7, ptr %3, align 8, !tbaa !37
  %8 = load ptr, ptr %3, align 8, !tbaa !37
  %9 = icmp ne ptr %8, null
  br i1 %9, label %11, label %10

10:                                               ; preds = %1
  store i32 1, ptr %5, align 4
  br label %41

11:                                               ; preds = %1
  %12 = load ptr, ptr %3, align 8, !tbaa !37
  %13 = getelementptr inbounds nuw %struct.Agobj_s, ptr %12, i32 0, i32 1
  %14 = load ptr, ptr %13, align 8, !tbaa !8
  %15 = getelementptr inbounds nuw %struct.Agnodeinfo_t, ptr %14, i32 0, i32 14
  %16 = load ptr, ptr %15, align 8, !tbaa !38
  call void @free(ptr noundef %16) #11
  br label %17

17:                                               ; preds = %35, %11
  %18 = load ptr, ptr %3, align 8, !tbaa !37
  %19 = icmp ne ptr %18, null
  br i1 %19, label %20, label %39

20:                                               ; preds = %17
  %21 = load ptr, ptr %2, align 8, !tbaa !3
  %22 = load ptr, ptr %3, align 8, !tbaa !37
  %23 = call ptr @agfstout(ptr noundef %21, ptr noundef %22)
  store ptr %23, ptr %4, align 8, !tbaa !45
  br label %24

24:                                               ; preds = %29, %20
  %25 = load ptr, ptr %4, align 8, !tbaa !45
  %26 = icmp ne ptr %25, null
  br i1 %26, label %27, label %33

27:                                               ; preds = %24
  %28 = load ptr, ptr %4, align 8, !tbaa !45
  call void @gv_cleanup_edge(ptr noundef %28)
  br label %29

29:                                               ; preds = %27
  %30 = load ptr, ptr %2, align 8, !tbaa !3
  %31 = load ptr, ptr %4, align 8, !tbaa !45
  %32 = call ptr @agnxtout(ptr noundef %30, ptr noundef %31)
  store ptr %32, ptr %4, align 8, !tbaa !45
  br label %24, !llvm.loop !46

33:                                               ; preds = %24
  %34 = load ptr, ptr %3, align 8, !tbaa !37
  call void @gv_cleanup_node(ptr noundef %34)
  br label %35

35:                                               ; preds = %33
  %36 = load ptr, ptr %2, align 8, !tbaa !3
  %37 = load ptr, ptr %3, align 8, !tbaa !37
  %38 = call ptr @agnxtnode(ptr noundef %36, ptr noundef %37)
  store ptr %38, ptr %3, align 8, !tbaa !37
  br label %17, !llvm.loop !48

39:                                               ; preds = %17
  %40 = load ptr, ptr %2, align 8, !tbaa !3
  call void @patchwork_cleanup_graph(ptr noundef %40)
  store i32 0, ptr %5, align 4
  br label %41

41:                                               ; preds = %39, %10
  call void @llvm.lifetime.end.p0(i64 8, ptr %4) #11
  call void @llvm.lifetime.end.p0(i64 8, ptr %3) #11
  %42 = load i32, ptr %5, align 4
  switch i32 %42, label %44 [
    i32 0, label %43
    i32 1, label %43
  ]

43:                                               ; preds = %41, %41
  ret void

44:                                               ; preds = %41
  unreachable
}