; Function Attrs: nounwind uwtable
define void @patchwork_cleanup(ptr noundef %0) local_unnamed_addr #0 {
  %2 = tail call ptr @agfstnode(ptr noundef %0) #13
  %.not = icmp eq ptr %2, null
  br i1 %.not, label %20, label %3

3:                                                ; preds = %1
  %4 = getelementptr inbounds nuw i8, ptr %2, i64 16
  %5 = load ptr, ptr %4, align 8, !tbaa !8
  %6 = getelementptr inbounds nuw i8, ptr %5, i64 152
  %7 = load ptr, ptr %6, align 8, !tbaa !38
  tail call void @free(ptr noundef %7) #13
  br label %8

8:                                                ; preds = %3, %._crit_edge
  %.01420 = phi ptr [ %2, %3 ], [ %11, %._crit_edge ]
  %9 = tail call ptr @agfstout(ptr noundef %0, ptr noundef nonnull %.01420) #13
  %.not1718 = icmp eq ptr %9, null
  br i1 %.not1718, label %._crit_edge, label %.lr.ph

.lr.ph:                                           ; preds = %8, %.lr.ph
  %.019 = phi ptr [ %10, %.lr.ph ], [ %9, %8 ]
  tail call void @gv_cleanup_edge(ptr noundef nonnull %.019) #13
  %10 = tail call ptr @agnxtout(ptr noundef %0, ptr noundef nonnull %.019) #13
  %.not17 = icmp eq ptr %10, null
  br i1 %.not17, label %._crit_edge, label %.lr.ph, !llvm.loop !50

._crit_edge:                                      ; preds = %.lr.ph, %8
  tail call void @gv_cleanup_node(ptr noundef nonnull %.01420) #13
  %11 = tail call ptr @agnxtnode(ptr noundef %0, ptr noundef nonnull %.01420) #13
  %.not16 = icmp eq ptr %11, null
  br i1 %.not16, label %12, label %8, !llvm.loop !51

12:                                               ; preds = %._crit_edge
  %13 = getelementptr inbounds nuw i8, ptr %0, i64 16
  %14 = load ptr, ptr %13, align 8, !tbaa !8
  %15 = getelementptr inbounds nuw i8, ptr %14, i64 184
  %16 = load ptr, ptr %15, align 8, !tbaa !37
  tail call void @free(ptr noundef %16) #13
  %17 = load ptr, ptr %13, align 8, !tbaa !8
  %18 = getelementptr inbounds nuw i8, ptr %17, i64 240
  %19 = load ptr, ptr %18, align 8, !tbaa !52
  tail call void @free(ptr noundef %19) #13
  br label %20

20:                                               ; preds = %1, %12
  ret void
}